target datalayout = "e-m:e-p270:32:32-p271:32:32-p272:64:64-i64:64-i128:128-f80:128-n8:16:32:64-S128"
target triple = "x86_64-pc-linux-gnu"

%struct.location = type { i32, i32 }
%struct.block = type { ptr, ptr }
%struct.inst = type { ptr, ptr, i32, %struct.anon, ptr, %struct.location, ptr, ptr, i32, i32, i32, i32, %struct.block, %struct.block, ptr, i32 }
%struct.anon = type { i16, ptr, %struct.jv, ptr }
%struct.jv = type { i8, i8, i16, i32, %union.anon }
%union.anon = type { ptr }

; Function Attrs: nounwind uwtable
define dso_local { ptr, ptr } @gen_location(i64 %0, ptr noundef %1, ptr %2, ptr %3) #0 {
  %5 = alloca %struct.block, align 8
  %6 = alloca %struct.location, align 4
  %7 = alloca %struct.block, align 8
  %8 = alloca ptr, align 8
  %9 = alloca ptr, align 8
  store i64 %0, ptr %6, align 4
  %10 = getelementptr inbounds nuw { ptr, ptr }, ptr %7, i32 0, i32 0
  store ptr %2, ptr %10, align 8
  %11 = getelementptr inbounds nuw { ptr, ptr }, ptr %7, i32 0, i32 1
  store ptr %3, ptr %11, align 8
  store ptr %1, ptr %8, align 8, !tbaa !11
  call void @llvm.lifetime.start.p0(i64 8, ptr %9) #7
  %12 = getelementptr inbounds nuw %struct.block, ptr %7, i32 0, i32 0
  %13 = load ptr, ptr %12, align 8, !tbaa !4
  store ptr %13, ptr %9, align 8, !tbaa !13
  br label %14

14:                                               ; preds = %38, %4
  %15 = load ptr, ptr %9, align 8, !tbaa !13
  %16 = icmp ne ptr %15, null
  br i1 %16, label %18, label %17

17:                                               ; preds = %14
  call void @llvm.lifetime.end.p0(i64 8, ptr %9) #7
  br label %42

18:                                               ; preds = %14
  %19 = load ptr, ptr %9, align 8, !tbaa !13
  %20 = getelementptr inbounds nuw %struct.inst, ptr %19, i32 0, i32 5
  %21 = getelementptr inbounds nuw %struct.location, ptr %20, i32 0, i32 0
  %22 = load i32, ptr %21, align 8, !tbaa !14
  %23 = icmp eq i32 %22, -1
  br i1 %23, label %24, label %37

24:                                               ; preds = %18
  %25 = load ptr, ptr %9, align 8, !tbaa !13
  %26 = getelementptr inbounds nuw %struct.inst, ptr %25, i32 0, i32 5
  %27 = getelementptr inbounds nuw %struct.location, ptr %26, i32 0, i32 1
  %28 = load i32, ptr %27, align 4, !tbaa !24
  %29 = icmp eq i32 %28, -1
  br i1 %29, label %30, label %37

30:                                               ; preds = %24
  %31 = load ptr, ptr %9, align 8, !tbaa !13
  %32 = getelementptr inbounds nuw %struct.inst, ptr %31, i32 0, i32 5
  call void @llvm.memcpy.p0.p0.i64(ptr align 8 %32, ptr align 4 %6, i64 8, i1 false), !tbaa.struct !25
  %33 = load ptr, ptr %8, align 8, !tbaa !11
  %34 = call ptr @locfile_retain(ptr noundef %33)
  %35 = load ptr, ptr %9, align 8, !tbaa !13
  %36 = getelementptr inbounds nuw %struct.inst, ptr %35, i32 0, i32 4
  store ptr %34, ptr %36, align 8, !tbaa !27
  br label %37

37:                                               ; preds = %30, %24, %18
  br label %38

38:                                               ; preds = %37
  %39 = load ptr, ptr %9, align 8, !tbaa !13
  %40 = getelementptr inbounds nuw %struct.inst, ptr %39, i32 0, i32 0
  %41 = load ptr, ptr %40, align 8, !tbaa !28
  store ptr %41, ptr %9, align 8, !tbaa !13
  br label %14, !llvm.loop !29

42:                                               ; preds = %17
  call void @llvm.memcpy.p0.p0.i64(ptr align 8 %5, ptr align 8 %7, i64 16, i1 false), !tbaa.struct !31
  %43 = load { ptr, ptr }, ptr %5, align 8
  ret { ptr, ptr } %43
}