; Function Attrs: nounwind uwtable
define dso_local { ptr, ptr } @gen_location(i64 %0, ptr noundef %1, ptr %2, ptr %3) local_unnamed_addr #1 {
  %.not9 = icmp eq ptr %2, null
  br i1 %.not9, label %._crit_edge, label %.lr.ph

._crit_edge:                                      ; preds = %15, %4
  %.fca.0.insert = insertvalue { ptr, ptr } poison, ptr %2, 0
  %.fca.1.insert = insertvalue { ptr, ptr } %.fca.0.insert, ptr %3, 1
  ret { ptr, ptr } %.fca.1.insert

.lr.ph:                                           ; preds = %4, %15
  %.010 = phi ptr [ %16, %15 ], [ %2, %4 ]
  %5 = getelementptr inbounds nuw i8, ptr %.010, i64 72
  %6 = load i32, ptr %5, align 8, !tbaa !4
  %7 = icmp eq i32 %6, -1
  br i1 %7, label %8, label %15

8:                                                ; preds = %.lr.ph
  %9 = getelementptr inbounds nuw i8, ptr %.010, i64 76
  %10 = load i32, ptr %9, align 4, !tbaa !20
  %11 = icmp eq i32 %10, -1
  br i1 %11, label %12, label %15

12:                                               ; preds = %8
  store i64 %0, ptr %5, align 8
  %13 = tail call ptr @locfile_retain(ptr noundef %1) #17
  %14 = getelementptr inbounds nuw i8, ptr %.010, i64 64
  store ptr %13, ptr %14, align 8, !tbaa !21
  br label %15

15:                                               ; preds = %.lr.ph, %8, %12
  %16 = load ptr, ptr %.010, align 8, !tbaa !22
  %.not = icmp eq ptr %16, null
  br i1 %.not, label %._crit_edge, label %.lr.ph, !llvm.loop !23
}